; Function Attrs: mustprogress uwtable
define dso_local noundef nonnull align 8 dereferenceable(32) ptr @_ZNK5vcpkg10VcpkgPaths16get_tool_versionB5cxx11ENS_10StringViewERNS_11MessageSinkE(ptr noundef nonnull readonly align 8 captures(none) dereferenceable(440) %0, ptr %1, i64 %2, ptr noundef nonnull align 8 dereferenceable(8) %3) local_unnamed_addr #0 align 2 {
  %5 = getelementptr inbounds nuw i8, ptr %0, i64 64
  %6 = load ptr, ptr %5, align 8, !tbaa !46
  %7 = getelementptr inbounds nuw i8, ptr %6, i64 1072
  %8 = load ptr, ptr %7, align 8, !tbaa !284
  %9 = load ptr, ptr %8, align 8, !tbaa !84
  %10 = getelementptr inbounds nuw i8, ptr %9, i64 24
  %11 = load ptr, ptr %10, align 8
  %12 = tail call noundef nonnull align 8 dereferenceable(32) ptr %11(ptr noundef nonnull align 8 dereferenceable(8) %8, ptr %1, i64 %2, ptr noundef nonnull align 8 dereferenceable(8) %3)
  ret ptr %12
}